target datalayout = "e-m:e-p270:32:32-p271:32:32-p272:64:64-i64:64-i128:128-f80:128-n8:16:32:64-S128"
target triple = "x86_64-pc-linux-gnu"

%struct.jpeg_compress_struct = type { ptr, ptr, ptr, ptr, i32, i32, ptr, i32, i32, i32, i32, double, i32, i32, i32, ptr, [4 x ptr], [4 x ptr], [4 x ptr], [16 x i8], [16 x i8], [16 x i8], i32, ptr, i32, i32, i32, i32, i32, i32, i32, i32, i32, i8, i8, i8, i16, i16, i32, i32, i32, i32, i32, i32, i32, [4 x ptr], i32, i32, i32, [10 x i32], i32, i32, i32, i32, ptr, ptr, ptr, ptr, ptr, ptr, ptr, ptr, ptr, ptr, i32 }
%struct.phuff_entropy_encoder = type { %struct.jpeg_entropy_encoder, i32, ptr, i64, i32, i32, ptr, [4 x i32], i32, i32, i32, ptr, i32, i32, [4 x ptr], [4 x ptr] }
%struct.jpeg_entropy_encoder = type { ptr, ptr, ptr }
%struct.jpeg_error_mgr = type { ptr, ptr, ptr, ptr, ptr, i32, %union.anon, i32, i64, ptr, i32, ptr, i32, i32 }
%union.anon = type { [8 x i32], [48 x i8] }
%struct.jpeg_destination_mgr = type { ptr, i64, ptr, ptr, ptr }

; Function Attrs: nounwind uwtable
define internal void @dump_buffer(ptr noundef %0) #0 {
  %2 = alloca ptr, align 8
  %3 = alloca ptr, align 8
  store ptr %0, ptr %2, align 8
  %4 = load ptr, ptr %2, align 8
  %5 = getelementptr inbounds %struct.phuff_entropy_encoder, ptr %4, i32 0, i32 6
  %6 = load ptr, ptr %5, align 8
  %7 = getelementptr inbounds %struct.jpeg_compress_struct, ptr %6, i32 0, i32 6
  %8 = load ptr, ptr %7, align 8
  store ptr %8, ptr %3, align 8
  %9 = load ptr, ptr %3, align 8
  %10 = getelementptr inbounds %struct.jpeg_destination_mgr, ptr %9, i32 0, i32 3
  %11 = load ptr, ptr %10, align 8
  %12 = load ptr, ptr %2, align 8
  %13 = getelementptr inbounds %struct.phuff_entropy_encoder, ptr %12, i32 0, i32 6
  %14 = load ptr, ptr %13, align 8
  %15 = call i32 %11(ptr noundef %14)
  %16 = icmp ne i32 %15, 0
  br i1 %16, label %34, label %17

17:                                               ; preds = %1
  %18 = load ptr, ptr %2, align 8
  %19 = getelementptr inbounds %struct.phuff_entropy_encoder, ptr %18, i32 0, i32 6
  %20 = load ptr, ptr %19, align 8
  %21 = getelementptr inbounds %struct.jpeg_compress_struct, ptr %20, i32 0, i32 0
  %22 = load ptr, ptr %21, align 8
  %23 = getelementptr inbounds %struct.jpeg_error_mgr, ptr %22, i32 0, i32 5
  store i32 24, ptr %23, align 8
  %24 = load ptr, ptr %2, align 8
  %25 = getelementptr inbounds %struct.phuff_entropy_encoder, ptr %24, i32 0, i32 6
  %26 = load ptr, ptr %25, align 8
  %27 = getelementptr inbounds %struct.jpeg_compress_struct, ptr %26, i32 0, i32 0
  %28 = load ptr, ptr %27, align 8
  %29 = getelementptr inbounds %struct.jpeg_error_mgr, ptr %28, i32 0, i32 0
  %30 = load ptr, ptr %29, align 8
  %31 = load ptr, ptr %2, align 8
  %32 = getelementptr inbounds %struct.phuff_entropy_encoder, ptr %31, i32 0, i32 6
  %33 = load ptr, ptr %32, align 8
  call void %30(ptr noundef %33)
  br label %34

34:                                               ; preds = %17, %1
  %35 = load ptr, ptr %3, align 8
  %36 = getelementptr inbounds %struct.jpeg_destination_mgr, ptr %35, i32 0, i32 0
  %37 = load ptr, ptr %36, align 8
  %38 = load ptr, ptr %2, align 8
  %39 = getelementptr inbounds %struct.phuff_entropy_encoder, ptr %38, i32 0, i32 2
  store ptr %37, ptr %39, align 8
  %40 = load ptr, ptr %3, align 8
  %41 = getelementptr inbounds %struct.jpeg_destination_mgr, ptr %40, i32 0, i32 1
  %42 = load i64, ptr %41, align 8
  %43 = load ptr, ptr %2, align 8
  %44 = getelementptr inbounds %struct.phuff_entropy_encoder, ptr %43, i32 0, i32 3
  store i64 %42, ptr %44, align 8
  ret void
}

; Function Attrs: nounwind uwtable
define internal void @flush_bits(ptr noundef %0) #0 {
  %2 = alloca ptr, align 8
  store ptr %0, ptr %2, align 8
  %3 = load ptr, ptr %2, align 8
  call void @emit_bits(ptr noundef %3, i32 noundef 127, i32 noundef 7)
  %4 = load ptr, ptr %2, align 8
  %5 = getelementptr inbounds %struct.phuff_entropy_encoder, ptr %4, i32 0, i32 4
  store i32 0, ptr %5, align 8
  %6 = load ptr, ptr %2, align 8
  %7 = getelementptr inbounds %struct.phuff_entropy_encoder, ptr %6, i32 0, i32 5
  store i32 0, ptr %7, align 4
  ret void
}

; Function Attrs: nounwind uwtable
define internal void @emit_restart(ptr noundef %0, i32 noundef %1) #0 {
  %3 = alloca ptr, align 8
  %4 = alloca i32, align 4
  %5 = alloca i32, align 4
  store ptr %0, ptr %3, align 8
  store i32 %1, ptr %4, align 4
  %6 = load ptr, ptr %3, align 8
  call void @emit_eobrun(ptr noundef %6)
  %7 = load ptr, ptr %3, align 8
  %8 = getelementptr inbounds %struct.phuff_entropy_encoder, ptr %7, i32 0, i32 1
  %9 = load i32, ptr %8, align 8
  %10 = icmp ne i32 %9, 0
  br i1 %10, label %40, label %11

11:                                               ; preds = %2
  %12 = load ptr, ptr %3, align 8
  call void @flush_bits(ptr noundef %12)
  %13 = load ptr, ptr %3, align 8
  %14 = getelementptr inbounds %struct.phuff_entropy_encoder, ptr %13, i32 0, i32 2
  %15 = load ptr, ptr %14, align 8
  %16 = getelementptr inbounds i8, ptr %15, i32 1
  store ptr %16, ptr %14, align 8
  store i8 -1, ptr %15, align 1
  %17 = load ptr, ptr %3, align 8
  %18 = getelementptr inbounds %struct.phuff_entropy_encoder, ptr %17, i32 0, i32 3
  %19 = load i64, ptr %18, align 8
  %20 = add i64 %19, -1
  store i64 %20, ptr %18, align 8
  %21 = icmp eq i64 %20, 0
  br i1 %21, label %22, label %24

22:                                               ; preds = %11
  %23 = load ptr, ptr %3, align 8
  call void @dump_buffer(ptr noundef %23)
  br label %24

24:                                               ; preds = %22, %11
  %25 = load i32, ptr %4, align 4
  %26 = add nsw i32 208, %25
  %27 = trunc i32 %26 to i8
  %28 = load ptr, ptr %3, align 8
  %29 = getelementptr inbounds %struct.phuff_entropy_encoder, ptr %28, i32 0, i32 2
  %30 = load ptr, ptr %29, align 8
  %31 = getelementptr inbounds i8, ptr %30, i32 1
  store ptr %31, ptr %29, align 8
  store i8 %27, ptr %30, align 1
  %32 = load ptr, ptr %3, align 8
  %33 = getelementptr inbounds %struct.phuff_entropy_encoder, ptr %32, i32 0, i32 3
  %34 = load i64, ptr %33, align 8
  %35 = add i64 %34, -1
  store i64 %35, ptr %33, align 8
  %36 = icmp eq i64 %35, 0
  br i1 %36, label %37, label %39

37:                                               ; preds = %24
  %38 = load ptr, ptr %3, align 8
  call void @dump_buffer(ptr noundef %38)
  br label %39

39:                                               ; preds = %37, %24
  br label %40

40:                                               ; preds = %39, %2
  %41 = load ptr, ptr %3, align 8
  %42 = getelementptr inbounds %struct.phuff_entropy_encoder, ptr %41, i32 0, i32 6
  %43 = load ptr, ptr %42, align 8
  %44 = getelementptr inbounds %struct.jpeg_compress_struct, ptr %43, i32 0, i32 50
  %45 = load i32, ptr %44, align 4
  %46 = icmp eq i32 %45, 0
  br i1 %46, label %47, label %66

47:                                               ; preds = %40
  store i32 0, ptr %5, align 4
  br label %48

48:                                               ; preds = %62, %47
  %49 = load i32, ptr %5, align 4
  %50 = load ptr, ptr %3, align 8
  %51 = getelementptr inbounds %struct.phuff_entropy_encoder, ptr %50, i32 0, i32 6
  %52 = load ptr, ptr %51, align 8
  %53 = getelementptr inbounds %struct.jpeg_compress_struct, ptr %52, i32 0, i32 44
  %54 = load i32, ptr %53, align 4
  %55 = icmp slt i32 %49, %54
  br i1 %55, label %56, label %65

56:                                               ; preds = %48
  %57 = load ptr, ptr %3, align 8
  %58 = getelementptr inbounds %struct.phuff_entropy_encoder, ptr %57, i32 0, i32 7
  %59 = load i32, ptr %5, align 4
  %60 = sext i32 %59 to i64
  %61 = getelementptr inbounds [4 x i32], ptr %58, i64 0, i64 %60
  store i32 0, ptr %61, align 4
  br label %62

62:                                               ; preds = %56
  %63 = load i32, ptr %5, align 4
  %64 = add nsw i32 %63, 1
  store i32 %64, ptr %5, align 4
  br label %48, !llvm.loop !19

65:                                               ; preds = %48
  br label %71

66:                                               ; preds = %40
  %67 = load ptr, ptr %3, align 8
  %68 = getelementptr inbounds %struct.phuff_entropy_encoder, ptr %67, i32 0, i32 9
  store i32 0, ptr %68, align 4
  %69 = load ptr, ptr %3, align 8
  %70 = getelementptr inbounds %struct.phuff_entropy_encoder, ptr %69, i32 0, i32 10
  store i32 0, ptr %70, align 8
  br label %71

71:                                               ; preds = %66, %65
  ret void
}