; Function Attrs: nounwind uwtable
define internal fastcc void @emit_restart(ptr nocapture noundef %0, i32 noundef %1) unnamed_addr #0 {
  tail call fastcc void @emit_eobrun(ptr noundef %0)
  %3 = getelementptr inbounds i8, ptr %0, i64 24
  %4 = load i32, ptr %3, align 8
  %.not = icmp eq i32 %4, 0
  br i1 %.not, label %5, label %59

5:                                                ; preds = %2
  tail call fastcc void @emit_bits(ptr noundef nonnull %0, i32 noundef 127, i32 noundef 7)
  %6 = getelementptr inbounds i8, ptr %0, i64 48
  store i32 0, ptr %6, align 8
  %7 = getelementptr inbounds i8, ptr %0, i64 52
  store i32 0, ptr %7, align 4
  %8 = getelementptr inbounds i8, ptr %0, i64 32
  %9 = load ptr, ptr %8, align 8
  %10 = getelementptr inbounds i8, ptr %9, i64 1
  store ptr %10, ptr %8, align 8
  store i8 -1, ptr %9, align 1
  %11 = getelementptr inbounds i8, ptr %0, i64 40
  %12 = load i64, ptr %11, align 8
  %13 = add i64 %12, -1
  store i64 %13, ptr %11, align 8
  %14 = icmp eq i64 %13, 0
  br i1 %14, label %15, label %._crit_edge

._crit_edge:                                      ; preds = %5
  %.pre = load ptr, ptr %8, align 8
  br label %33

15:                                               ; preds = %5
  %16 = getelementptr inbounds i8, ptr %0, i64 56
  %17 = load ptr, ptr %16, align 8
  %18 = getelementptr inbounds i8, ptr %17, i64 40
  %19 = load ptr, ptr %18, align 8
  %20 = getelementptr inbounds i8, ptr %19, i64 24
  %21 = load ptr, ptr %20, align 8
  %22 = tail call i32 %21(ptr noundef %17) #4
  %.not.i = icmp eq i32 %22, 0
  br i1 %.not.i, label %23, label %dump_buffer.exit

23:                                               ; preds = %15
  %24 = load ptr, ptr %16, align 8
  %25 = load ptr, ptr %24, align 8
  %26 = getelementptr inbounds i8, ptr %25, i64 40
  store i32 24, ptr %26, align 8
  %27 = load ptr, ptr %16, align 8
  %28 = load ptr, ptr %27, align 8
  %29 = load ptr, ptr %28, align 8
  tail call void %29(ptr noundef nonnull %27) #4
  br label %dump_buffer.exit

dump_buffer.exit:                                 ; preds = %15, %23
  %30 = load ptr, ptr %19, align 8
  store ptr %30, ptr %8, align 8
  %31 = getelementptr inbounds i8, ptr %19, i64 8
  %32 = load i64, ptr %31, align 8
  store i64 %32, ptr %11, align 8
  br label %33

33:                                               ; preds = %._crit_edge, %dump_buffer.exit
  %34 = phi ptr [ %.pre, %._crit_edge ], [ %30, %dump_buffer.exit ]
  %35 = trunc i32 %1 to i8
  %36 = add i8 %35, -48
  %37 = getelementptr inbounds i8, ptr %34, i64 1
  store ptr %37, ptr %8, align 8
  store i8 %36, ptr %34, align 1
  %38 = load i64, ptr %11, align 8
  %39 = add i64 %38, -1
  store i64 %39, ptr %11, align 8
  %40 = icmp eq i64 %39, 0
  br i1 %40, label %41, label %59

41:                                               ; preds = %33
  %42 = getelementptr inbounds i8, ptr %0, i64 56
  %43 = load ptr, ptr %42, align 8
  %44 = getelementptr inbounds i8, ptr %43, i64 40
  %45 = load ptr, ptr %44, align 8
  %46 = getelementptr inbounds i8, ptr %45, i64 24
  %47 = load ptr, ptr %46, align 8
  %48 = tail call i32 %47(ptr noundef %43) #4
  %.not.i17 = icmp eq i32 %48, 0
  br i1 %.not.i17, label %49, label %dump_buffer.exit18

49:                                               ; preds = %41
  %50 = load ptr, ptr %42, align 8
  %51 = load ptr, ptr %50, align 8
  %52 = getelementptr inbounds i8, ptr %51, i64 40
  store i32 24, ptr %52, align 8
  %53 = load ptr, ptr %42, align 8
  %54 = load ptr, ptr %53, align 8
  %55 = load ptr, ptr %54, align 8
  tail call void %55(ptr noundef nonnull %53) #4
  br label %dump_buffer.exit18

dump_buffer.exit18:                               ; preds = %41, %49
  %56 = load ptr, ptr %45, align 8
  store ptr %56, ptr %8, align 8
  %57 = getelementptr inbounds i8, ptr %45, i64 8
  %58 = load i64, ptr %57, align 8
  store i64 %58, ptr %11, align 8
  br label %59

59:                                               ; preds = %33, %dump_buffer.exit18, %2
  %60 = getelementptr inbounds i8, ptr %0, i64 56
  %61 = load ptr, ptr %60, align 8
  %62 = getelementptr inbounds i8, ptr %61, i64 412
  %63 = load i32, ptr %62, align 4
  %64 = icmp eq i32 %63, 0
  br i1 %64, label %.preheader, label %74

.preheader:                                       ; preds = %59
  %65 = getelementptr inbounds i8, ptr %61, i64 324
  %66 = load i32, ptr %65, align 4
  %67 = icmp sgt i32 %66, 0
  br i1 %67, label %.lr.ph, label %.loopexit

.lr.ph:                                           ; preds = %.preheader
  %68 = getelementptr inbounds i8, ptr %0, i64 64
  br label %69

69:                                               ; preds = %.lr.ph, %69
  %indvars.iv = phi i64 [ 0, %.lr.ph ], [ %indvars.iv.next, %69 ]
  %70 = getelementptr inbounds [4 x i32], ptr %68, i64 0, i64 %indvars.iv
  store i32 0, ptr %70, align 4
  %indvars.iv.next = add nuw nsw i64 %indvars.iv, 1
  %71 = load i32, ptr %65, align 4
  %72 = sext i32 %71 to i64
  %73 = icmp slt i64 %indvars.iv.next, %72
  br i1 %73, label %69, label %.loopexit, !llvm.loop !23

74:                                               ; preds = %59
  %75 = getelementptr inbounds i8, ptr %0, i64 84
  store i32 0, ptr %75, align 4
  %76 = getelementptr inbounds i8, ptr %0, i64 88
  store i32 0, ptr %76, align 8
  br label %.loopexit

.loopexit:                                        ; preds = %69, %.preheader, %74
  ret void
}